target datalayout = "e-m:e-p270:32:32-p271:32:32-p272:64:64-i64:64-i128:128-f80:128-n8:16:32:64-S128"
target triple = "x86_64-pc-linux-gnu"

%"struct.open_spiel::GameType" = type <{ %"class.std::__cxx11::basic_string", %"class.std::__cxx11::basic_string", i32, i32, i32, i32, i32, i32, i32, i8, i8, i8, i8, %"class.std::map", i8, i8, [6 x i8] }>
%"class.std::__cxx11::basic_string" = type { %"struct.std::__cxx11::basic_string<char>::_Alloc_hider", i64, %union.anon }
%"struct.std::__cxx11::basic_string<char>::_Alloc_hider" = type { ptr }
%union.anon = type { i64, [8 x i8] }
%"class.std::map" = type { %"class.std::_Rb_tree" }
%"class.std::_Rb_tree" = type { %"struct.std::_Rb_tree<std::__cxx11::basic_string<char>, std::pair<const std::__cxx11::basic_string<char>, open_spiel::GameParameter>, std::_Select1st<std::pair<const std::__cxx11::basic_string<char>, open_spiel::GameParameter>>, std::less<std::__cxx11::basic_string<char>>>::_Rb_tree_impl" }
%"struct.std::_Rb_tree<std::__cxx11::basic_string<char>, std::pair<const std::__cxx11::basic_string<char>, open_spiel::GameParameter>, std::_Select1st<std::pair<const std::__cxx11::basic_string<char>, open_spiel::GameParameter>>, std::less<std::__cxx11::basic_string<char>>>::_Rb_tree_impl" = type { [8 x i8], %"struct.std::_Rb_tree_header" }
%"struct.std::_Rb_tree_header" = type { %"struct.std::_Rb_tree_node_base", i64 }
%"struct.std::_Rb_tree_node_base" = type { i32, ptr, ptr, ptr }
%"class.open_spiel::battleship::BattleshipGame" = type { %"class.open_spiel::Game", %"struct.open_spiel::battleship::BattleshipConfiguration" }
%"class.open_spiel::Game" = type { ptr, %"class.std::enable_shared_from_this", %"struct.open_spiel::GameType", %"class.std::map", %"class.std::map", %"class.absl::debian2::Mutex" }
%"class.std::enable_shared_from_this" = type { %"class.std::weak_ptr" }
%"class.std::weak_ptr" = type { %"class.std::__weak_ptr" }
%"class.std::__weak_ptr" = type { ptr, %"class.std::__weak_count" }
%"class.std::__weak_count" = type { ptr }
%"class.absl::debian2::Mutex" = type { %"struct.std::atomic" }
%"struct.std::atomic" = type { %"struct.std::__atomic_base" }
%"struct.std::__atomic_base" = type { i64 }
%"struct.open_spiel::battleship::BattleshipConfiguration" = type { i32, i32, %"class.std::vector.14", i32, i8, double }
%"class.std::vector.14" = type { %"struct.std::_Vector_base.15" }
%"struct.std::_Vector_base.15" = type { %"struct.std::_Vector_base<open_spiel::battleship::Ship, std::allocator<open_spiel::battleship::Ship>>::_Vector_impl" }
%"struct.std::_Vector_base<open_spiel::battleship::Ship, std::allocator<open_spiel::battleship::Ship>>::_Vector_impl" = type { %"struct.std::_Vector_base<open_spiel::battleship::Ship, std::allocator<open_spiel::battleship::Ship>>::_Vector_impl_data" }
%"struct.std::_Vector_base<open_spiel::battleship::Ship, std::allocator<open_spiel::battleship::Ship>>::_Vector_impl_data" = type { ptr, ptr, ptr }
%"struct.open_spiel::battleship::Cell" = type { i32, i32 }

@.str = private unnamed_addr constant [140 x i8] c"generated/home/dtcxzyw/WorkSpace/Projects/compilers/llvm-opt-benchmark/bench/openspiel/open_spiel/open_spiel/games/battleship/battleship.cc\00", align 1
@.str.1 = private unnamed_addr constant [2 x i8] c":\00", align 1
@.str.2 = private unnamed_addr constant [2 x i8] c" \00", align 1
@.str.5 = private unnamed_addr constant [4 x i8] c" = \00", align 1
@.str.6 = private unnamed_addr constant [7 x i8] c", 0 = \00", align 1
@.str.49 = private unnamed_addr constant [23 x i8] c", conf.board_height = \00", align 1
@.str.53 = private unnamed_addr constant [22 x i8] c", conf.board_width = \00", align 1
@.str.119 = private unnamed_addr constant [14 x i8] c"shot.row >= 0\00", align 1
@.str.120 = private unnamed_addr constant [10 x i8] c"\0Ashot.row\00", align 1
@.str.121 = private unnamed_addr constant [14 x i8] c"shot.col >= 0\00", align 1
@.str.122 = private unnamed_addr constant [10 x i8] c"\0Ashot.col\00", align 1
@.str.123 = private unnamed_addr constant [29 x i8] c"shot.row < conf.board_height\00", align 1
@.str.124 = private unnamed_addr constant [28 x i8] c"shot.col < conf.board_width\00", align 1

; Function Attrs: mustprogress uwtable
define noundef i64 @_ZNK10open_spiel10battleship14BattleshipGame19SerializeShotActionERKNS0_4CellE(ptr noundef nonnull align 8 dereferenceable(328) %0, ptr noundef nonnull align 4 dereferenceable(8) %1) #4 align 2 personality ptr @__gxx_personality_v0 {
  %3 = alloca ptr, align 8
  %4 = alloca ptr, align 8
  %5 = alloca i32, align 4
  %6 = alloca i32, align 4
  %7 = alloca %"class.std::__cxx11::basic_string", align 8
  %8 = alloca i32, align 4
  %9 = alloca ptr, align 8
  %10 = alloca i32, align 4
  %11 = alloca i32, align 4
  %12 = alloca i32, align 4
  %13 = alloca %"class.std::__cxx11::basic_string", align 8
  %14 = alloca i32, align 4
  %15 = alloca i32, align 4
  %16 = alloca i32, align 4
  %17 = alloca %"class.std::__cxx11::basic_string", align 8
  %18 = alloca i32, align 4
  %19 = alloca i32, align 4
  %20 = alloca i32, align 4
  %21 = alloca %"class.std::__cxx11::basic_string", align 8
  %22 = alloca i32, align 4
  store ptr %0, ptr %3, align 8
  store ptr %1, ptr %4, align 8
  %23 = load ptr, ptr %3, align 8
  br label %24

24:                                               ; preds = %2
  %25 = load ptr, ptr %4, align 8
  %26 = getelementptr inbounds nuw %"struct.open_spiel::battleship::Cell", ptr %25, i32 0, i32 0
  %27 = load i32, ptr %26, align 4
  store i32 %27, ptr %5, align 4
  store i32 0, ptr %6, align 4
  %28 = load i32, ptr %5, align 4
  %29 = load i32, ptr %6, align 4
  %30 = icmp sge i32 %28, %29
  br i1 %30, label %37, label %31

31:                                               ; preds = %24
  store i32 1048, ptr %8, align 4
  call void @_ZN10open_spiel8internal11SpielStrCatIJRA140_KcRA2_S2_iS6_RA14_S2_RA10_S2_RA4_S2_RiRA7_S2_SD_EEENSt7__cxx1112basic_stringIcSt11char_traitsIcESaIcEEEDpOT_(ptr dead_on_unwind writable sret(%"class.std::__cxx11::basic_string") align 8 %7, ptr noundef nonnull align 1 dereferenceable(140) @.str, ptr noundef nonnull align 1 dereferenceable(2) @.str.1, ptr noundef nonnull align 4 dereferenceable(4) %8, ptr noundef nonnull align 1 dereferenceable(2) @.str.2, ptr noundef nonnull align 1 dereferenceable(14) @.str.119, ptr noundef nonnull align 1 dereferenceable(10) @.str.120, ptr noundef nonnull align 1 dereferenceable(4) @.str.5, ptr noundef nonnull align 4 dereferenceable(4) %5, ptr noundef nonnull align 1 dereferenceable(7) @.str.6, ptr noundef nonnull align 4 dereferenceable(4) %6)
  invoke void @_ZN10open_spiel15SpielFatalErrorERKNSt7__cxx1112basic_stringIcSt11char_traitsIcESaIcEEE(ptr noundef nonnull align 8 dereferenceable(32) %7) #19
          to label %32 unwind label %33

32:                                               ; preds = %31
  unreachable

33:                                               ; preds = %31
  %34 = landingpad { ptr, i32 }
          cleanup
  %35 = extractvalue { ptr, i32 } %34, 0
  store ptr %35, ptr %9, align 8
  %36 = extractvalue { ptr, i32 } %34, 1
  store i32 %36, ptr %10, align 4
  call void @_ZNSt7__cxx1112basic_stringIcSt11char_traitsIcESaIcEED1Ev(ptr noundef nonnull align 8 dereferenceable(32) %7) #3
  br label %102

37:                                               ; preds = %24
  br label %38

38:                                               ; preds = %37
  br label %39

39:                                               ; preds = %38
  %40 = load ptr, ptr %4, align 8
  %41 = getelementptr inbounds nuw %"struct.open_spiel::battleship::Cell", ptr %40, i32 0, i32 1
  %42 = load i32, ptr %41, align 4
  store i32 %42, ptr %11, align 4
  store i32 0, ptr %12, align 4
  %43 = load i32, ptr %11, align 4
  %44 = load i32, ptr %12, align 4
  %45 = icmp sge i32 %43, %44
  br i1 %45, label %52, label %46

46:                                               ; preds = %39
  store i32 1049, ptr %14, align 4
  call void @_ZN10open_spiel8internal11SpielStrCatIJRA140_KcRA2_S2_iS6_RA14_S2_RA10_S2_RA4_S2_RiRA7_S2_SD_EEENSt7__cxx1112basic_stringIcSt11char_traitsIcESaIcEEEDpOT_(ptr dead_on_unwind writable sret(%"class.std::__cxx11::basic_string") align 8 %13, ptr noundef nonnull align 1 dereferenceable(140) @.str, ptr noundef nonnull align 1 dereferenceable(2) @.str.1, ptr noundef nonnull align 4 dereferenceable(4) %14, ptr noundef nonnull align 1 dereferenceable(2) @.str.2, ptr noundef nonnull align 1 dereferenceable(14) @.str.121, ptr noundef nonnull align 1 dereferenceable(10) @.str.122, ptr noundef nonnull align 1 dereferenceable(4) @.str.5, ptr noundef nonnull align 4 dereferenceable(4) %11, ptr noundef nonnull align 1 dereferenceable(7) @.str.6, ptr noundef nonnull align 4 dereferenceable(4) %12)
  invoke void @_ZN10open_spiel15SpielFatalErrorERKNSt7__cxx1112basic_stringIcSt11char_traitsIcESaIcEEE(ptr noundef nonnull align 8 dereferenceable(32) %13) #19
          to label %47 unwind label %48

47:                                               ; preds = %46
  unreachable

48:                                               ; preds = %46
  %49 = landingpad { ptr, i32 }
          cleanup
  %50 = extractvalue { ptr, i32 } %49, 0
  store ptr %50, ptr %9, align 8
  %51 = extractvalue { ptr, i32 } %49, 1
  store i32 %51, ptr %10, align 4
  call void @_ZNSt7__cxx1112basic_stringIcSt11char_traitsIcESaIcEED1Ev(ptr noundef nonnull align 8 dereferenceable(32) %13) #3
  br label %102

52:                                               ; preds = %39
  br label %53

53:                                               ; preds = %52
  br label %54

54:                                               ; preds = %53
  %55 = load ptr, ptr %4, align 8
  %56 = getelementptr inbounds nuw %"struct.open_spiel::battleship::Cell", ptr %55, i32 0, i32 0
  %57 = load i32, ptr %56, align 4
  store i32 %57, ptr %15, align 4
  %58 = getelementptr inbounds nuw %"class.open_spiel::battleship::BattleshipGame", ptr %23, i32 0, i32 1
  %59 = getelementptr inbounds nuw %"struct.open_spiel::battleship::BattleshipConfiguration", ptr %58, i32 0, i32 1
  %60 = load i32, ptr %59, align 4
  store i32 %60, ptr %16, align 4
  %61 = load i32, ptr %15, align 4
  %62 = load i32, ptr %16, align 4
  %63 = icmp slt i32 %61, %62
  br i1 %63, label %70, label %64

64:                                               ; preds = %54
  store i32 1050, ptr %18, align 4
  call void @_ZN10open_spiel8internal11SpielStrCatIJRA140_KcRA2_S2_iS6_RA29_S2_RA10_S2_RA4_S2_RiRA23_S2_SD_EEENSt7__cxx1112basic_stringIcSt11char_traitsIcESaIcEEEDpOT_(ptr dead_on_unwind writable sret(%"class.std::__cxx11::basic_string") align 8 %17, ptr noundef nonnull align 1 dereferenceable(140) @.str, ptr noundef nonnull align 1 dereferenceable(2) @.str.1, ptr noundef nonnull align 4 dereferenceable(4) %18, ptr noundef nonnull align 1 dereferenceable(2) @.str.2, ptr noundef nonnull align 1 dereferenceable(29) @.str.123, ptr noundef nonnull align 1 dereferenceable(10) @.str.120, ptr noundef nonnull align 1 dereferenceable(4) @.str.5, ptr noundef nonnull align 4 dereferenceable(4) %15, ptr noundef nonnull align 1 dereferenceable(23) @.str.49, ptr noundef nonnull align 4 dereferenceable(4) %16)
  invoke void @_ZN10open_spiel15SpielFatalErrorERKNSt7__cxx1112basic_stringIcSt11char_traitsIcESaIcEEE(ptr noundef nonnull align 8 dereferenceable(32) %17) #19
          to label %65 unwind label %66

65:                                               ; preds = %64
  unreachable

66:                                               ; preds = %64
  %67 = landingpad { ptr, i32 }
          cleanup
  %68 = extractvalue { ptr, i32 } %67, 0
  store ptr %68, ptr %9, align 8
  %69 = extractvalue { ptr, i32 } %67, 1
  store i32 %69, ptr %10, align 4
  call void @_ZNSt7__cxx1112basic_stringIcSt11char_traitsIcESaIcEED1Ev(ptr noundef nonnull align 8 dereferenceable(32) %17) #3
  br label %102

70:                                               ; preds = %54
  br label %71

71:                                               ; preds = %70
  br label %72

72:                                               ; preds = %71
  %73 = load ptr, ptr %4, align 8
  %74 = getelementptr inbounds nuw %"struct.open_spiel::battleship::Cell", ptr %73, i32 0, i32 1
  %75 = load i32, ptr %74, align 4
  store i32 %75, ptr %19, align 4
  %76 = getelementptr inbounds nuw %"class.open_spiel::battleship::BattleshipGame", ptr %23, i32 0, i32 1
  %77 = getelementptr inbounds nuw %"struct.open_spiel::battleship::BattleshipConfiguration", ptr %76, i32 0, i32 0
  %78 = load i32, ptr %77, align 8
  store i32 %78, ptr %20, align 4
  %79 = load i32, ptr %19, align 4
  %80 = load i32, ptr %20, align 4
  %81 = icmp slt i32 %79, %80
  br i1 %81, label %88, label %82

82:                                               ; preds = %72
  store i32 1051, ptr %22, align 4
  call void @_ZN10open_spiel8internal11SpielStrCatIJRA140_KcRA2_S2_iS6_RA28_S2_RA10_S2_RA4_S2_RiRA22_S2_SD_EEENSt7__cxx1112basic_stringIcSt11char_traitsIcESaIcEEEDpOT_(ptr dead_on_unwind writable sret(%"class.std::__cxx11::basic_string") align 8 %21, ptr noundef nonnull align 1 dereferenceable(140) @.str, ptr noundef nonnull align 1 dereferenceable(2) @.str.1, ptr noundef nonnull align 4 dereferenceable(4) %22, ptr noundef nonnull align 1 dereferenceable(2) @.str.2, ptr noundef nonnull align 1 dereferenceable(28) @.str.124, ptr noundef nonnull align 1 dereferenceable(10) @.str.122, ptr noundef nonnull align 1 dereferenceable(4) @.str.5, ptr noundef nonnull align 4 dereferenceable(4) %19, ptr noundef nonnull align 1 dereferenceable(22) @.str.53, ptr noundef nonnull align 4 dereferenceable(4) %20)
  invoke void @_ZN10open_spiel15SpielFatalErrorERKNSt7__cxx1112basic_stringIcSt11char_traitsIcESaIcEEE(ptr noundef nonnull align 8 dereferenceable(32) %21) #19
          to label %83 unwind label %84

83:                                               ; preds = %82
  unreachable

84:                                               ; preds = %82
  %85 = landingpad { ptr, i32 }
          cleanup
  %86 = extractvalue { ptr, i32 } %85, 0
  store ptr %86, ptr %9, align 8
  %87 = extractvalue { ptr, i32 } %85, 1
  store i32 %87, ptr %10, align 4
  call void @_ZNSt7__cxx1112basic_stringIcSt11char_traitsIcESaIcEED1Ev(ptr noundef nonnull align 8 dereferenceable(32) %21) #3
  br label %102

88:                                               ; preds = %72
  br label %89

89:                                               ; preds = %88
  %90 = load ptr, ptr %4, align 8
  %91 = getelementptr inbounds nuw %"struct.open_spiel::battleship::Cell", ptr %90, i32 0, i32 0
  %92 = load i32, ptr %91, align 4
  %93 = getelementptr inbounds nuw %"class.open_spiel::battleship::BattleshipGame", ptr %23, i32 0, i32 1
  %94 = getelementptr inbounds nuw %"struct.open_spiel::battleship::BattleshipConfiguration", ptr %93, i32 0, i32 0
  %95 = load i32, ptr %94, align 8
  %96 = mul nsw i32 %92, %95
  %97 = load ptr, ptr %4, align 8
  %98 = getelementptr inbounds nuw %"struct.open_spiel::battleship::Cell", ptr %97, i32 0, i32 1
  %99 = load i32, ptr %98, align 4
  %100 = add nsw i32 %96, %99
  %101 = sext i32 %100 to i64
  ret i64 %101

102:                                              ; preds = %84, %66, %48, %33
  %103 = load ptr, ptr %9, align 8
  %104 = load i32, ptr %10, align 4
  %105 = insertvalue { ptr, i32 } poison, ptr %103, 0
  %106 = insertvalue { ptr, i32 } %105, i32 %104, 1
  resume { ptr, i32 } %106
}