; Function Attrs: mustprogress uwtable
define noundef range(i64 0, 2147483648) i64 @_ZNK10open_spiel10battleship14BattleshipGame19SerializeShotActionERKNS0_4CellE(ptr noundef nonnull readonly align 8 captures(none) dereferenceable(328) %0, ptr noundef nonnull readonly align 4 captures(none) dereferenceable(8) %1) local_unnamed_addr #3 align 2 personality ptr @__gxx_personality_v0 {
  %3 = alloca i32, align 4
  %4 = alloca i32, align 4
  %5 = alloca %"class.std::__cxx11::basic_string", align 8
  %6 = alloca i32, align 4
  %7 = alloca i32, align 4
  %8 = alloca i32, align 4
  %9 = alloca %"class.std::__cxx11::basic_string", align 8
  %10 = alloca i32, align 4
  %11 = alloca i32, align 4
  %12 = alloca i32, align 4
  %13 = alloca %"class.std::__cxx11::basic_string", align 8
  %14 = alloca i32, align 4
  %15 = alloca i32, align 4
  %16 = alloca i32, align 4
  %17 = alloca %"class.std::__cxx11::basic_string", align 8
  %18 = alloca i32, align 4
  %19 = load i32, ptr %1, align 4
  store i32 %19, ptr %3, align 4
  store i32 0, ptr %4, align 4
  %20 = icmp sgt i32 %19, -1
  br i1 %20, label %25, label %21

21:                                               ; preds = %2
  store i32 1048, ptr %6, align 4
  call void @_ZN10open_spiel8internal11SpielStrCatIJRA140_KcRA2_S2_iS6_RA14_S2_RA10_S2_RA4_S2_RiRA7_S2_SD_EEENSt7__cxx1112basic_stringIcSt11char_traitsIcESaIcEEEDpOT_(ptr dead_on_unwind nonnull writable sret(%"class.std::__cxx11::basic_string") align 8 %5, ptr noundef nonnull align 1 dereferenceable(140) @.str, ptr noundef nonnull align 1 dereferenceable(2) @.str.1, ptr noundef nonnull align 4 dereferenceable(4) %6, ptr noundef nonnull align 1 dereferenceable(2) @.str.2, ptr noundef nonnull align 1 dereferenceable(14) @.str.119, ptr noundef nonnull align 1 dereferenceable(10) @.str.120, ptr noundef nonnull align 1 dereferenceable(4) @.str.5, ptr noundef nonnull align 4 dereferenceable(4) %3, ptr noundef nonnull align 1 dereferenceable(7) @.str.6, ptr noundef nonnull align 4 dereferenceable(4) %4)
  invoke void @_ZN10open_spiel15SpielFatalErrorERKNSt7__cxx1112basic_stringIcSt11char_traitsIcESaIcEEE(ptr noundef nonnull align 8 dereferenceable(32) %5) #28
          to label %22 unwind label %23

22:                                               ; preds = %21
  unreachable

23:                                               ; preds = %21
  %24 = landingpad { ptr, i32 }
          cleanup
  br label %53

25:                                               ; preds = %2
  %26 = getelementptr inbounds nuw i8, ptr %1, i64 4
  %27 = load i32, ptr %26, align 4
  store i32 %27, ptr %7, align 4
  store i32 0, ptr %8, align 4
  %28 = icmp sgt i32 %27, -1
  br i1 %28, label %33, label %29

29:                                               ; preds = %25
  store i32 1049, ptr %10, align 4
  call void @_ZN10open_spiel8internal11SpielStrCatIJRA140_KcRA2_S2_iS6_RA14_S2_RA10_S2_RA4_S2_RiRA7_S2_SD_EEENSt7__cxx1112basic_stringIcSt11char_traitsIcESaIcEEEDpOT_(ptr dead_on_unwind nonnull writable sret(%"class.std::__cxx11::basic_string") align 8 %9, ptr noundef nonnull align 1 dereferenceable(140) @.str, ptr noundef nonnull align 1 dereferenceable(2) @.str.1, ptr noundef nonnull align 4 dereferenceable(4) %10, ptr noundef nonnull align 1 dereferenceable(2) @.str.2, ptr noundef nonnull align 1 dereferenceable(14) @.str.121, ptr noundef nonnull align 1 dereferenceable(10) @.str.122, ptr noundef nonnull align 1 dereferenceable(4) @.str.5, ptr noundef nonnull align 4 dereferenceable(4) %7, ptr noundef nonnull align 1 dereferenceable(7) @.str.6, ptr noundef nonnull align 4 dereferenceable(4) %8)
  invoke void @_ZN10open_spiel15SpielFatalErrorERKNSt7__cxx1112basic_stringIcSt11char_traitsIcESaIcEEE(ptr noundef nonnull align 8 dereferenceable(32) %9) #28
          to label %30 unwind label %31

30:                                               ; preds = %29
  unreachable

31:                                               ; preds = %29
  %32 = landingpad { ptr, i32 }
          cleanup
  br label %53

33:                                               ; preds = %25
  store i32 %19, ptr %11, align 4
  %34 = getelementptr inbounds nuw i8, ptr %0, i64 284
  %35 = load i32, ptr %34, align 4
  store i32 %35, ptr %12, align 4
  %36 = icmp slt i32 %19, %35
  br i1 %36, label %41, label %37

37:                                               ; preds = %33
  store i32 1050, ptr %14, align 4
  call void @_ZN10open_spiel8internal11SpielStrCatIJRA140_KcRA2_S2_iS6_RA29_S2_RA10_S2_RA4_S2_RiRA23_S2_SD_EEENSt7__cxx1112basic_stringIcSt11char_traitsIcESaIcEEEDpOT_(ptr dead_on_unwind nonnull writable sret(%"class.std::__cxx11::basic_string") align 8 %13, ptr noundef nonnull align 1 dereferenceable(140) @.str, ptr noundef nonnull align 1 dereferenceable(2) @.str.1, ptr noundef nonnull align 4 dereferenceable(4) %14, ptr noundef nonnull align 1 dereferenceable(2) @.str.2, ptr noundef nonnull align 1 dereferenceable(29) @.str.123, ptr noundef nonnull align 1 dereferenceable(10) @.str.120, ptr noundef nonnull align 1 dereferenceable(4) @.str.5, ptr noundef nonnull align 4 dereferenceable(4) %11, ptr noundef nonnull align 1 dereferenceable(23) @.str.49, ptr noundef nonnull align 4 dereferenceable(4) %12)
  invoke void @_ZN10open_spiel15SpielFatalErrorERKNSt7__cxx1112basic_stringIcSt11char_traitsIcESaIcEEE(ptr noundef nonnull align 8 dereferenceable(32) %13) #28
          to label %38 unwind label %39

38:                                               ; preds = %37
  unreachable

39:                                               ; preds = %37
  %40 = landingpad { ptr, i32 }
          cleanup
  br label %53

41:                                               ; preds = %33
  %42 = getelementptr inbounds nuw i8, ptr %0, i64 280
  store i32 %27, ptr %15, align 4
  %43 = load i32, ptr %42, align 8
  store i32 %43, ptr %16, align 4
  %44 = icmp slt i32 %27, %43
  br i1 %44, label %49, label %45

45:                                               ; preds = %41
  store i32 1051, ptr %18, align 4
  call void @_ZN10open_spiel8internal11SpielStrCatIJRA140_KcRA2_S2_iS6_RA28_S2_RA10_S2_RA4_S2_RiRA22_S2_SD_EEENSt7__cxx1112basic_stringIcSt11char_traitsIcESaIcEEEDpOT_(ptr dead_on_unwind nonnull writable sret(%"class.std::__cxx11::basic_string") align 8 %17, ptr noundef nonnull align 1 dereferenceable(140) @.str, ptr noundef nonnull align 1 dereferenceable(2) @.str.1, ptr noundef nonnull align 4 dereferenceable(4) %18, ptr noundef nonnull align 1 dereferenceable(2) @.str.2, ptr noundef nonnull align 1 dereferenceable(28) @.str.124, ptr noundef nonnull align 1 dereferenceable(10) @.str.122, ptr noundef nonnull align 1 dereferenceable(4) @.str.5, ptr noundef nonnull align 4 dereferenceable(4) %15, ptr noundef nonnull align 1 dereferenceable(22) @.str.53, ptr noundef nonnull align 4 dereferenceable(4) %16)
  invoke void @_ZN10open_spiel15SpielFatalErrorERKNSt7__cxx1112basic_stringIcSt11char_traitsIcESaIcEEE(ptr noundef nonnull align 8 dereferenceable(32) %17) #28
          to label %46 unwind label %47

46:                                               ; preds = %45
  unreachable

47:                                               ; preds = %45
  %48 = landingpad { ptr, i32 }
          cleanup
  br label %53

49:                                               ; preds = %41
  %50 = mul nsw i32 %43, %19
  %51 = add nuw nsw i32 %50, %27
  %52 = zext nneg i32 %51 to i64
  ret i64 %52

53:                                               ; preds = %47, %39, %31, %23
  %.sink = phi ptr [ %17, %47 ], [ %13, %39 ], [ %9, %31 ], [ %5, %23 ]
  %.pn = phi { ptr, i32 } [ %48, %47 ], [ %40, %39 ], [ %32, %31 ], [ %24, %23 ]
  call void @_ZNSt7__cxx1112basic_stringIcSt11char_traitsIcESaIcEED1Ev(ptr noundef nonnull align 8 dereferenceable(32) %.sink) #27
  resume { ptr, i32 } %.pn
}